target datalayout = "e-m:e-p270:32:32-p271:32:32-p272:64:64-i64:64-i128:128-f80:128-n8:16:32:64-S128"
target triple = "x86_64-pc-linux-gnu"

%"class.duckdb_apache::thrift::transport::TBufferBase" = type { %"class.duckdb_apache::thrift::transport::TVirtualTransport.0", ptr, ptr, ptr, ptr }
%"class.duckdb_apache::thrift::transport::TVirtualTransport.0" = type { %"class.duckdb_apache::thrift::transport::TTransportDefaults" }
%"class.duckdb_apache::thrift::transport::TTransportDefaults" = type { %"class.duckdb_apache::thrift::transport::TTransport" }
%"class.duckdb_apache::thrift::transport::TTransport" = type { ptr }

; Function Attrs: inlinehint mustprogress nounwind uwtable
define linkonce_odr noundef nonnull align 4 dereferenceable(4) ptr @_ZSt3minIjERKT_S2_S2_(ptr noundef nonnull align 4 dereferenceable(4) %0, ptr noundef nonnull align 4 dereferenceable(4) %1) #2 comdat {
  %3 = alloca ptr, align 8
  %4 = alloca ptr, align 8
  %5 = alloca ptr, align 8
  store ptr %0, ptr %4, align 8, !tbaa !12
  store ptr %1, ptr %5, align 8, !tbaa !12
  %6 = load ptr, ptr %5, align 8, !tbaa !12
  %7 = load i32, ptr %6, align 4, !tbaa !8
  %8 = load ptr, ptr %4, align 8, !tbaa !12
  %9 = load i32, ptr %8, align 4, !tbaa !8
  %10 = icmp ult i32 %7, %9
  br i1 %10, label %11, label %13

11:                                               ; preds = %2
  %12 = load ptr, ptr %5, align 8, !tbaa !12
  store ptr %12, ptr %3, align 8
  br label %15

13:                                               ; preds = %2
  %14 = load ptr, ptr %4, align 8, !tbaa !12
  store ptr %14, ptr %3, align 8
  br label %15

15:                                               ; preds = %13, %11
  %16 = load ptr, ptr %3, align 8
  ret ptr %16
}

; Function Attrs: mustprogress nounwind uwtable
define linkonce_odr noundef i32 @_ZNK13duckdb_apache6thrift9transport13TMemoryBuffer14available_readEv(ptr noundef nonnull align 8 dereferenceable(57) %0) #3 comdat align 2 {
  %2 = alloca ptr, align 8
  store ptr %0, ptr %2, align 8, !tbaa !3
  %3 = load ptr, ptr %2, align 8
  %4 = getelementptr inbounds nuw %"class.duckdb_apache::thrift::transport::TBufferBase", ptr %3, i32 0, i32 3
  %5 = load ptr, ptr %4, align 8, !tbaa !14
  %6 = getelementptr inbounds nuw %"class.duckdb_apache::thrift::transport::TBufferBase", ptr %3, i32 0, i32 1
  %7 = load ptr, ptr %6, align 8, !tbaa !21
  %8 = ptrtoint ptr %5 to i64
  %9 = ptrtoint ptr %7 to i64
  %10 = sub i64 %8, %9
  %11 = trunc i64 %10 to i32
  ret i32 %11
}

; Function Attrs: mustprogress uwtable
define void @_ZN13duckdb_apache6thrift9transport13TMemoryBuffer11computeReadEjPPhPj(ptr noundef nonnull align 8 dereferenceable(57) %0, i32 noundef %1, ptr noundef %2, ptr noundef %3) #0 align 2 {
  %5 = alloca ptr, align 8
  %6 = alloca i32, align 4
  %7 = alloca ptr, align 8
  %8 = alloca ptr, align 8
  %9 = alloca i32, align 4
  %10 = alloca i32, align 4
  store ptr %0, ptr %5, align 8, !tbaa !3
  store i32 %1, ptr %6, align 4, !tbaa !8
  store ptr %2, ptr %7, align 8, !tbaa !10
  store ptr %3, ptr %8, align 8, !tbaa !12
  %11 = load ptr, ptr %5, align 8
  %12 = getelementptr inbounds nuw %"class.duckdb_apache::thrift::transport::TBufferBase", ptr %11, i32 0, i32 3
  %13 = load ptr, ptr %12, align 8, !tbaa !14
  %14 = getelementptr inbounds nuw %"class.duckdb_apache::thrift::transport::TBufferBase", ptr %11, i32 0, i32 2
  store ptr %13, ptr %14, align 8, !tbaa !20
  call void @llvm.lifetime.start.p0(i64 4, ptr %9) #14
  call void @llvm.lifetime.start.p0(i64 4, ptr %10) #14
  %15 = call noundef i32 @_ZNK13duckdb_apache6thrift9transport13TMemoryBuffer14available_readEv(ptr noundef nonnull align 8 dereferenceable(57) %11)
  store i32 %15, ptr %10, align 4, !tbaa !8
  %16 = call noundef nonnull align 4 dereferenceable(4) ptr @_ZSt3minIjERKT_S2_S2_(ptr noundef nonnull align 4 dereferenceable(4) %6, ptr noundef nonnull align 4 dereferenceable(4) %10)
  %17 = load i32, ptr %16, align 4, !tbaa !8
  call void @llvm.lifetime.end.p0(i64 4, ptr %10) #14
  store i32 %17, ptr %9, align 4, !tbaa !8
  %18 = getelementptr inbounds nuw %"class.duckdb_apache::thrift::transport::TBufferBase", ptr %11, i32 0, i32 1
  %19 = load ptr, ptr %18, align 8, !tbaa !21
  %20 = load ptr, ptr %7, align 8, !tbaa !10
  store ptr %19, ptr %20, align 8, !tbaa !22
  %21 = load i32, ptr %9, align 4, !tbaa !8
  %22 = load ptr, ptr %8, align 8, !tbaa !12
  store i32 %21, ptr %22, align 4, !tbaa !8
  %23 = load i32, ptr %9, align 4, !tbaa !8
  %24 = getelementptr inbounds nuw %"class.duckdb_apache::thrift::transport::TBufferBase", ptr %11, i32 0, i32 1
  %25 = load ptr, ptr %24, align 8, !tbaa !21
  %26 = zext i32 %23 to i64
  %27 = getelementptr inbounds nuw i8, ptr %25, i64 %26
  store ptr %27, ptr %24, align 8, !tbaa !21
  call void @llvm.lifetime.end.p0(i64 4, ptr %9) #14
  ret void
}