; Function Attrs: mustprogress nofree norecurse nosync nounwind willreturn memory(argmem: readwrite) uwtable
define void @_ZN13duckdb_apache6thrift9transport13TMemoryBuffer11computeReadEjPPhPj(ptr noundef nonnull align 8 captures(none) dereferenceable(57) initializes((16, 24)) %0, i32 noundef %1, ptr noundef writeonly captures(none) initializes((0, 8)) %2, ptr noundef writeonly captures(none) initializes((0, 4)) %3) local_unnamed_addr #0 align 2 {
  %5 = getelementptr inbounds nuw i8, ptr %0, i64 24
  %6 = load ptr, ptr %5, align 8, !tbaa !3
  %7 = getelementptr inbounds nuw i8, ptr %0, i64 16
  store ptr %6, ptr %7, align 8, !tbaa !12
  %8 = getelementptr inbounds nuw i8, ptr %0, i64 8
  %9 = load ptr, ptr %8, align 8, !tbaa !13
  %10 = ptrtoint ptr %6 to i64
  %11 = ptrtoint ptr %9 to i64
  %12 = sub i64 %10, %11
  %13 = trunc i64 %12 to i32
  %.sroa.speculated = tail call i32 @llvm.umin.i32(i32 %1, i32 %13)
  store ptr %9, ptr %2, align 8, !tbaa !14
  store i32 %.sroa.speculated, ptr %3, align 4, !tbaa !15
  %14 = zext i32 %.sroa.speculated to i64
  %15 = getelementptr inbounds nuw i8, ptr %9, i64 %14
  store ptr %15, ptr %8, align 8, !tbaa !13
  ret void
}